target datalayout = "e-m:e-p270:32:32-p271:32:32-p272:64:64-i64:64-i128:128-f80:128-n8:16:32:64-S128"
target triple = "x86_64-pc-linux-gnu"

%struct._lv_fpoint_t = type { float, float }

; Function Attrs: nounwind uwtable
define void @lv_vector_path_append_arc(ptr noundef %0, ptr noundef %1, float noundef %2, float noundef %3, float noundef %4, i1 noundef zeroext %5) #0 {
  %7 = alloca ptr, align 8
  %8 = alloca ptr, align 8
  %9 = alloca float, align 4
  %10 = alloca float, align 4
  %11 = alloca float, align 4
  %12 = alloca i8, align 1
  %13 = alloca float, align 4
  %14 = alloca float, align 4
  %15 = alloca i32, align 4
  %16 = alloca i32, align 4
  %17 = alloca float, align 4
  %18 = alloca float, align 4
  %19 = alloca %struct._lv_fpoint_t, align 4
  %20 = alloca %struct._lv_fpoint_t, align 4
  %21 = alloca %struct._lv_fpoint_t, align 4
  %22 = alloca i32, align 4
  %23 = alloca float, align 4
  %24 = alloca float, align 4
  %25 = alloca float, align 4
  %26 = alloca float, align 4
  %27 = alloca float, align 4
  %28 = alloca float, align 4
  %29 = alloca float, align 4
  %30 = alloca float, align 4
  %31 = alloca float, align 4
  %32 = alloca float, align 4
  %33 = alloca %struct._lv_fpoint_t, align 4
  %34 = alloca %struct._lv_fpoint_t, align 4
  %35 = alloca %struct._lv_fpoint_t, align 4
  store ptr %0, ptr %7, align 8, !tbaa !3
  store ptr %1, ptr %8, align 8, !tbaa !3
  store float %2, ptr %9, align 4, !tbaa !10
  store float %3, ptr %10, align 4, !tbaa !10
  store float %4, ptr %11, align 4, !tbaa !10
  %36 = zext i1 %5 to i8
  store i8 %36, ptr %12, align 1, !tbaa !30
  call void @llvm.lifetime.start.p0(i64 4, ptr %13) #7
  %37 = load ptr, ptr %8, align 8, !tbaa !3
  %38 = getelementptr inbounds nuw %struct._lv_fpoint_t, ptr %37, i32 0, i32 0
  %39 = load float, ptr %38, align 4, !tbaa !7
  store float %39, ptr %13, align 4, !tbaa !10
  call void @llvm.lifetime.start.p0(i64 4, ptr %14) #7
  %40 = load ptr, ptr %8, align 8, !tbaa !3
  %41 = getelementptr inbounds nuw %struct._lv_fpoint_t, ptr %40, i32 0, i32 1
  %42 = load float, ptr %41, align 4, !tbaa !11
  store float %42, ptr %14, align 4, !tbaa !10
  %43 = load float, ptr %11, align 4, !tbaa !10
  %44 = fcmp oge float %43, 3.600000e+02
  br i1 %44, label %48, label %45

45:                                               ; preds = %6
  %46 = load float, ptr %11, align 4, !tbaa !10
  %47 = fcmp ole float %46, -3.600000e+02
  br i1 %47, label %48, label %53

48:                                               ; preds = %45, %6
  %49 = load ptr, ptr %7, align 8, !tbaa !3
  %50 = load ptr, ptr %8, align 8, !tbaa !3
  %51 = load float, ptr %9, align 4, !tbaa !10
  %52 = load float, ptr %9, align 4, !tbaa !10
  call void @lv_vector_path_append_circle(ptr noundef %49, ptr noundef %50, float noundef %51, float noundef %52)
  store i32 1, ptr %15, align 4
  br label %227

53:                                               ; preds = %45
  %54 = load float, ptr %10, align 4, !tbaa !10
  %55 = fmul float %54, 0x3F91DF46A0000000
  store float %55, ptr %10, align 4, !tbaa !10
  %56 = load float, ptr %11, align 4, !tbaa !10
  %57 = fmul float %56, 0x3F91DF46A0000000
  store float %57, ptr %11, align 4, !tbaa !10
  call void @llvm.lifetime.start.p0(i64 4, ptr %16) #7
  %58 = load float, ptr %11, align 4, !tbaa !10
  %59 = fdiv float %58, 0x3FF921FB60000000
  %60 = call float @llvm.fabs.f32(float %59)
  %61 = fpext float %60 to double
  %62 = call double @llvm.ceil.f64(double %61)
  %63 = fptosi double %62 to i32
  store i32 %63, ptr %16, align 4, !tbaa !12
  call void @llvm.lifetime.start.p0(i64 4, ptr %17) #7
  %64 = load float, ptr %11, align 4, !tbaa !10
  %65 = fcmp olt float %64, 0.000000e+00
  %66 = select i1 %65, float -1.000000e+00, float 1.000000e+00
  store float %66, ptr %17, align 4, !tbaa !10
  call void @llvm.lifetime.start.p0(i64 4, ptr %18) #7
  %67 = load float, ptr %11, align 4, !tbaa !10
  %68 = call float @fmodf(float noundef %67, float noundef 0x3FF921FB60000000) #7, !tbaa !12
  store float %68, ptr %18, align 4, !tbaa !10
  %69 = load float, ptr %18, align 4, !tbaa !10
  %70 = call float @llvm.fabs.f32(float %69)
  %71 = fcmp olt float %70, 0x3E80000000000000
  br i1 %71, label %72, label %75

72:                                               ; preds = %53
  %73 = load float, ptr %17, align 4, !tbaa !10
  %74 = fmul float 0x3FF921FB60000000, %73
  br label %77

75:                                               ; preds = %53
  %76 = load float, ptr %18, align 4, !tbaa !10
  br label %77

77:                                               ; preds = %75, %72
  %78 = phi float [ %74, %72 ], [ %76, %75 ]
  store float %78, ptr %18, align 4, !tbaa !10
  call void @llvm.lifetime.start.p0(i64 8, ptr %19) #7
  %79 = getelementptr inbounds nuw %struct._lv_fpoint_t, ptr %19, i32 0, i32 0
  %80 = load float, ptr %9, align 4, !tbaa !10
  %81 = load float, ptr %10, align 4, !tbaa !10
  %82 = call float @cosf(float noundef %81) #7, !tbaa !12
  %83 = fmul float %80, %82
  store float %83, ptr %79, align 4, !tbaa !7
  %84 = getelementptr inbounds nuw %struct._lv_fpoint_t, ptr %19, i32 0, i32 1
  %85 = load float, ptr %9, align 4, !tbaa !10
  %86 = load float, ptr %10, align 4, !tbaa !10
  %87 = call float @sinf(float noundef %86) #7, !tbaa !12
  %88 = fmul float %85, %87
  store float %88, ptr %84, align 4, !tbaa !11
  %89 = load i8, ptr %12, align 1, !tbaa !30, !range !31, !noundef !32
  %90 = trunc i8 %89 to i1
  br i1 %90, label %91, label %108

91:                                               ; preds = %77
  %92 = load ptr, ptr %7, align 8, !tbaa !3
  %93 = getelementptr inbounds nuw %struct._lv_fpoint_t, ptr %20, i32 0, i32 0
  %94 = load float, ptr %13, align 4, !tbaa !10
  store float %94, ptr %93, align 4, !tbaa !7
  %95 = getelementptr inbounds nuw %struct._lv_fpoint_t, ptr %20, i32 0, i32 1
  %96 = load float, ptr %14, align 4, !tbaa !10
  store float %96, ptr %95, align 4, !tbaa !11
  call void @lv_vector_path_move_to(ptr noundef %92, ptr noundef %20)
  %97 = load ptr, ptr %7, align 8, !tbaa !3
  %98 = getelementptr inbounds nuw %struct._lv_fpoint_t, ptr %21, i32 0, i32 0
  %99 = getelementptr inbounds nuw %struct._lv_fpoint_t, ptr %19, i32 0, i32 0
  %100 = load float, ptr %99, align 4, !tbaa !7
  %101 = load float, ptr %13, align 4, !tbaa !10
  %102 = fadd float %100, %101
  store float %102, ptr %98, align 4, !tbaa !7
  %103 = getelementptr inbounds nuw %struct._lv_fpoint_t, ptr %21, i32 0, i32 1
  %104 = getelementptr inbounds nuw %struct._lv_fpoint_t, ptr %19, i32 0, i32 1
  %105 = load float, ptr %104, align 4, !tbaa !11
  %106 = load float, ptr %14, align 4, !tbaa !10
  %107 = fadd float %105, %106
  store float %107, ptr %103, align 4, !tbaa !11
  call void @lv_vector_path_line_to(ptr noundef %97, ptr noundef %21)
  br label %108

108:                                              ; preds = %91, %77
  call void @llvm.lifetime.start.p0(i64 4, ptr %22) #7
  store i32 0, ptr %22, align 4, !tbaa !12
  br label %109

109:                                              ; preds = %218, %108
  %110 = load i32, ptr %22, align 4, !tbaa !12
  %111 = load i32, ptr %16, align 4, !tbaa !12
  %112 = icmp slt i32 %110, %111
  br i1 %112, label %114, label %113

113:                                              ; preds = %109
  store i32 2, ptr %15, align 4
  call void @llvm.lifetime.end.p0(i64 4, ptr %22) #7
  br label %221

114:                                              ; preds = %109
  call void @llvm.lifetime.start.p0(i64 4, ptr %23) #7
  %115 = load float, ptr %10, align 4, !tbaa !10
  %116 = load i32, ptr %22, align 4, !tbaa !12
  %117 = load i32, ptr %16, align 4, !tbaa !12
  %118 = sub nsw i32 %117, 1
  %119 = icmp ne i32 %116, %118
  br i1 %119, label %120, label %123

120:                                              ; preds = %114
  %121 = load float, ptr %17, align 4, !tbaa !10
  %122 = fmul float 0x3FF921FB60000000, %121
  br label %125

123:                                              ; preds = %114
  %124 = load float, ptr %18, align 4, !tbaa !10
  br label %125

125:                                              ; preds = %123, %120
  %126 = phi float [ %122, %120 ], [ %124, %123 ]
  %127 = fadd float %115, %126
  store float %127, ptr %23, align 4, !tbaa !10
  call void @llvm.lifetime.start.p0(i64 4, ptr %24) #7
  %128 = load float, ptr %9, align 4, !tbaa !10
  %129 = load float, ptr %23, align 4, !tbaa !10
  %130 = call float @cosf(float noundef %129) #7, !tbaa !12
  %131 = fmul float %128, %130
  store float %131, ptr %24, align 4, !tbaa !10
  call void @llvm.lifetime.start.p0(i64 4, ptr %25) #7
  %132 = load float, ptr %9, align 4, !tbaa !10
  %133 = load float, ptr %23, align 4, !tbaa !10
  %134 = call float @sinf(float noundef %133) #7, !tbaa !12
  %135 = fmul float %132, %134
  store float %135, ptr %25, align 4, !tbaa !10
  call void @llvm.lifetime.start.p0(i64 4, ptr %26) #7
  %136 = getelementptr inbounds nuw %struct._lv_fpoint_t, ptr %19, i32 0, i32 0
  %137 = load float, ptr %136, align 4, !tbaa !7
  store float %137, ptr %26, align 4, !tbaa !10
  call void @llvm.lifetime.start.p0(i64 4, ptr %27) #7
  %138 = getelementptr inbounds nuw %struct._lv_fpoint_t, ptr %19, i32 0, i32 1
  %139 = load float, ptr %138, align 4, !tbaa !11
  store float %139, ptr %27, align 4, !tbaa !10
  call void @llvm.lifetime.start.p0(i64 4, ptr %28) #7
  %140 = load float, ptr %24, align 4, !tbaa !10
  store float %140, ptr %28, align 4, !tbaa !10
  call void @llvm.lifetime.start.p0(i64 4, ptr %29) #7
  %141 = load float, ptr %25, align 4, !tbaa !10
  store float %141, ptr %29, align 4, !tbaa !10
  call void @llvm.lifetime.start.p0(i64 4, ptr %30) #7
  %142 = load float, ptr %26, align 4, !tbaa !10
  %143 = load float, ptr %26, align 4, !tbaa !10
  %144 = load float, ptr %27, align 4, !tbaa !10
  %145 = load float, ptr %27, align 4, !tbaa !10
  %146 = fmul float %144, %145
  %147 = call float @llvm.fmuladd.f32(float %142, float %143, float %146)
  store float %147, ptr %30, align 4, !tbaa !10
  call void @llvm.lifetime.start.p0(i64 4, ptr %31) #7
  %148 = load float, ptr %26, align 4, !tbaa !10
  %149 = load float, ptr %28, align 4, !tbaa !10
  %150 = load float, ptr %27, align 4, !tbaa !10
  %151 = load float, ptr %29, align 4, !tbaa !10
  %152 = fmul float %150, %151
  %153 = call float @llvm.fmuladd.f32(float %148, float %149, float %152)
  %154 = load float, ptr %30, align 4, !tbaa !10
  %155 = fadd float %153, %154
  store float %155, ptr %31, align 4, !tbaa !10
  call void @llvm.lifetime.start.p0(i64 4, ptr %32) #7
  %156 = load float, ptr %30, align 4, !tbaa !10
  %157 = fmul float 2.000000e+00, %156
  %158 = load float, ptr %31, align 4, !tbaa !10
  %159 = fmul float %157, %158
  %160 = call float @sqrtf(float noundef %159) #7, !tbaa !12
  %161 = load float, ptr %31, align 4, !tbaa !10
  %162 = fsub float %160, %161
  %163 = load float, ptr %26, align 4, !tbaa !10
  %164 = load float, ptr %29, align 4, !tbaa !10
  %165 = load float, ptr %27, align 4, !tbaa !10
  %166 = load float, ptr %28, align 4, !tbaa !10
  %167 = fmul float %165, %166
  %168 = fneg float %167
  %169 = call float @llvm.fmuladd.f32(float %163, float %164, float %168)
  %170 = fdiv float %162, %169
  %171 = fmul float 0x3FF5555560000000, %170
  store float %171, ptr %32, align 4, !tbaa !10
  %172 = load float, ptr %24, align 4, !tbaa !10
  %173 = getelementptr inbounds nuw %struct._lv_fpoint_t, ptr %19, i32 0, i32 0
  store float %172, ptr %173, align 4, !tbaa !7
  %174 = load float, ptr %25, align 4, !tbaa !10
  %175 = getelementptr inbounds nuw %struct._lv_fpoint_t, ptr %19, i32 0, i32 1
  store float %174, ptr %175, align 4, !tbaa !11
  %176 = load float, ptr %13, align 4, !tbaa !10
  %177 = load float, ptr %24, align 4, !tbaa !10
  %178 = fadd float %177, %176
  store float %178, ptr %24, align 4, !tbaa !10
  %179 = load float, ptr %14, align 4, !tbaa !10
  %180 = load float, ptr %25, align 4, !tbaa !10
  %181 = fadd float %180, %179
  store float %181, ptr %25, align 4, !tbaa !10
  call void @llvm.lifetime.start.p0(i64 8, ptr %33) #7
  %182 = getelementptr inbounds nuw %struct._lv_fpoint_t, ptr %33, i32 0, i32 0
  %183 = load float, ptr %26, align 4, !tbaa !10
  %184 = load float, ptr %32, align 4, !tbaa !10
  %185 = load float, ptr %27, align 4, !tbaa !10
  %186 = fneg float %184
  %187 = call float @llvm.fmuladd.f32(float %186, float %185, float %183)
  %188 = load float, ptr %13, align 4, !tbaa !10
  %189 = fadd float %187, %188
  store float %189, ptr %182, align 4, !tbaa !7
  %190 = getelementptr inbounds nuw %struct._lv_fpoint_t, ptr %33, i32 0, i32 1
  %191 = load float, ptr %27, align 4, !tbaa !10
  %192 = load float, ptr %32, align 4, !tbaa !10
  %193 = load float, ptr %26, align 4, !tbaa !10
  %194 = call float @llvm.fmuladd.f32(float %192, float %193, float %191)
  %195 = load float, ptr %14, align 4, !tbaa !10
  %196 = fadd float %194, %195
  store float %196, ptr %190, align 4, !tbaa !11
  call void @llvm.lifetime.start.p0(i64 8, ptr %34) #7
  %197 = getelementptr inbounds nuw %struct._lv_fpoint_t, ptr %34, i32 0, i32 0
  %198 = load float, ptr %28, align 4, !tbaa !10
  %199 = load float, ptr %32, align 4, !tbaa !10
  %200 = load float, ptr %29, align 4, !tbaa !10
  %201 = call float @llvm.fmuladd.f32(float %199, float %200, float %198)
  %202 = load float, ptr %13, align 4, !tbaa !10
  %203 = fadd float %201, %202
  store float %203, ptr %197, align 4, !tbaa !7
  %204 = getelementptr inbounds nuw %struct._lv_fpoint_t, ptr %34, i32 0, i32 1
  %205 = load float, ptr %29, align 4, !tbaa !10
  %206 = load float, ptr %32, align 4, !tbaa !10
  %207 = load float, ptr %28, align 4, !tbaa !10
  %208 = fneg float %206
  %209 = call float @llvm.fmuladd.f32(float %208, float %207, float %205)
  %210 = load float, ptr %14, align 4, !tbaa !10
  %211 = fadd float %209, %210
  store float %211, ptr %204, align 4, !tbaa !11
  call void @llvm.lifetime.start.p0(i64 8, ptr %35) #7
  %212 = getelementptr inbounds nuw %struct._lv_fpoint_t, ptr %35, i32 0, i32 0
  %213 = load float, ptr %24, align 4, !tbaa !10
  store float %213, ptr %212, align 4, !tbaa !7
  %214 = getelementptr inbounds nuw %struct._lv_fpoint_t, ptr %35, i32 0, i32 1
  %215 = load float, ptr %25, align 4, !tbaa !10
  store float %215, ptr %214, align 4, !tbaa !11
  %216 = load ptr, ptr %7, align 8, !tbaa !3
  call void @lv_vector_path_cubic_to(ptr noundef %216, ptr noundef %33, ptr noundef %34, ptr noundef %35)
  %217 = load float, ptr %23, align 4, !tbaa !10
  store float %217, ptr %10, align 4, !tbaa !10
  call void @llvm.lifetime.end.p0(i64 8, ptr %35) #7
  call void @llvm.lifetime.end.p0(i64 8, ptr %34) #7
  call void @llvm.lifetime.end.p0(i64 8, ptr %33) #7
  call void @llvm.lifetime.end.p0(i64 4, ptr %32) #7
  call void @llvm.lifetime.end.p0(i64 4, ptr %31) #7
  call void @llvm.lifetime.end.p0(i64 4, ptr %30) #7
  call void @llvm.lifetime.end.p0(i64 4, ptr %29) #7
  call void @llvm.lifetime.end.p0(i64 4, ptr %28) #7
  call void @llvm.lifetime.end.p0(i64 4, ptr %27) #7
  call void @llvm.lifetime.end.p0(i64 4, ptr %26) #7
  call void @llvm.lifetime.end.p0(i64 4, ptr %25) #7
  call void @llvm.lifetime.end.p0(i64 4, ptr %24) #7
  call void @llvm.lifetime.end.p0(i64 4, ptr %23) #7
  br label %218

218:                                              ; preds = %125
  %219 = load i32, ptr %22, align 4, !tbaa !12
  %220 = add nsw i32 %219, 1
  store i32 %220, ptr %22, align 4, !tbaa !12
  br label %109, !llvm.loop !33

221:                                              ; preds = %113
  %222 = load i8, ptr %12, align 1, !tbaa !30, !range !31, !noundef !32
  %223 = trunc i8 %222 to i1
  br i1 %223, label %224, label %226

224:                                              ; preds = %221
  %225 = load ptr, ptr %7, align 8, !tbaa !3
  call void @lv_vector_path_close(ptr noundef %225)
  br label %226

226:                                              ; preds = %224, %221
  call void @llvm.lifetime.end.p0(i64 8, ptr %19) #7
  call void @llvm.lifetime.end.p0(i64 4, ptr %18) #7
  call void @llvm.lifetime.end.p0(i64 4, ptr %17) #7
  call void @llvm.lifetime.end.p0(i64 4, ptr %16) #7
  store i32 0, ptr %15, align 4
  br label %227

227:                                              ; preds = %226, %48
  call void @llvm.lifetime.end.p0(i64 4, ptr %14) #7
  call void @llvm.lifetime.end.p0(i64 4, ptr %13) #7
  %228 = load i32, ptr %15, align 4
  switch i32 %228, label %230 [
    i32 0, label %229
    i32 1, label %229
  ]

229:                                              ; preds = %227, %227
  ret void

230:                                              ; preds = %227
  unreachable
}