; Function Attrs: nounwind uwtable
define void @lv_vector_path_append_arc(ptr noundef %0, ptr nocapture noundef readonly %1, float noundef %2, float noundef %3, float noundef %4, i1 noundef zeroext %5) local_unnamed_addr #3 {
  %7 = alloca %struct._lv_fpoint_t, align 4
  %8 = alloca %struct._lv_fpoint_t, align 4
  %9 = alloca %struct._lv_fpoint_t, align 4
  %10 = alloca %struct._lv_fpoint_t, align 4
  %11 = alloca %struct._lv_fpoint_t, align 4
  %12 = load float, ptr %1, align 4, !tbaa !3
  %13 = getelementptr inbounds nuw i8, ptr %1, i64 4
  %14 = load float, ptr %13, align 4, !tbaa !8
  %15 = tail call float @llvm.fabs.f32(float %4)
  %or.cond = fcmp ult float %15, 3.600000e+02
  br i1 %or.cond, label %17, label %16

16:                                               ; preds = %6
  tail call void @lv_vector_path_append_circle(ptr noundef %0, ptr noundef nonnull %1, float noundef %2, float noundef %2)
  br label %79

17:                                               ; preds = %6
  %18 = fmul float %3, 0x3F91DF46A0000000
  %19 = fmul float %4, 0x3F91DF46A0000000
  %20 = fdiv float %19, 0x3FF921FB60000000
  %21 = tail call float @llvm.fabs.f32(float %20)
  %22 = tail call float @llvm.ceil.f32(float %21)
  %23 = fptosi float %22 to i32
  %24 = fcmp olt float %19, 0.000000e+00
  %25 = tail call float @fmodf(float noundef %19, float noundef 0x3FF921FB60000000) #9, !tbaa !20
  %26 = tail call float @llvm.fabs.f32(float %25)
  %27 = fcmp olt float %26, 0x3E80000000000000
  %28 = select i1 %24, float 0xBFF921FB60000000, float 0x3FF921FB60000000
  %29 = select i1 %27, float %28, float %25
  %30 = tail call float @cosf(float noundef %18) #9, !tbaa !20
  %31 = fmul float %2, %30
  %32 = tail call float @sinf(float noundef %18) #9, !tbaa !20
  %33 = fmul float %2, %32
  br i1 %5, label %34, label %39

34:                                               ; preds = %17
  store float %12, ptr %7, align 4, !tbaa !3
  %35 = getelementptr inbounds nuw i8, ptr %7, i64 4
  store float %14, ptr %35, align 4, !tbaa !8
  call void @lv_vector_path_move_to(ptr noundef %0, ptr noundef nonnull %7)
  %36 = fadd float %12, %31
  store float %36, ptr %8, align 4, !tbaa !3
  %37 = getelementptr inbounds nuw i8, ptr %8, i64 4
  %38 = fadd float %14, %33
  store float %38, ptr %37, align 4, !tbaa !8
  call void @lv_vector_path_line_to(ptr noundef %0, ptr noundef nonnull %8)
  br label %39

39:                                               ; preds = %34, %17
  %40 = icmp sgt i32 %23, 0
  br i1 %40, label %.lr.ph, label %._crit_edge

.lr.ph:                                           ; preds = %39
  %41 = add nsw i32 %23, -1
  %42 = getelementptr inbounds nuw i8, ptr %9, i64 4
  %43 = getelementptr inbounds nuw i8, ptr %10, i64 4
  %44 = getelementptr inbounds nuw i8, ptr %11, i64 4
  br label %45

._crit_edge:                                      ; preds = %45, %39
  br i1 %5, label %78, label %79

45:                                               ; preds = %.lr.ph, %45
  %.093 = phi float [ %18, %.lr.ph ], [ %47, %45 ]
  %.sroa.6.092 = phi float [ %33, %.lr.ph ], [ %51, %45 ]
  %.sroa.0.091 = phi float [ %31, %.lr.ph ], [ %49, %45 ]
  %.08790 = phi i32 [ 0, %.lr.ph ], [ %77, %45 ]
  %.not = icmp eq i32 %.08790, %41
  %46 = select i1 %.not, float %29, float %28
  %47 = fadd float %46, %.093
  %48 = call float @cosf(float noundef %47) #9, !tbaa !20
  %49 = fmul float %2, %48
  %50 = call float @sinf(float noundef %47) #9, !tbaa !20
  %51 = fmul float %2, %50
  %52 = fmul float %.sroa.6.092, %.sroa.6.092
  %53 = call float @llvm.fmuladd.f32(float %.sroa.0.091, float %.sroa.0.091, float %52)
  %54 = fmul float %.sroa.6.092, %51
  %55 = call float @llvm.fmuladd.f32(float %.sroa.0.091, float %49, float %54)
  %56 = fadd float %53, %55
  %57 = fmul float %53, 2.000000e+00
  %58 = fmul float %57, %56
  %59 = call float @sqrtf(float noundef %58) #9, !tbaa !20
  %60 = fsub float %59, %56
  %61 = fneg float %49
  %62 = fmul float %.sroa.6.092, %61
  %63 = call float @llvm.fmuladd.f32(float %.sroa.0.091, float %51, float %62)
  %64 = fdiv float %60, %63
  %65 = fmul float %64, 0x3FF5555560000000
  %66 = fadd float %12, %49
  %67 = fadd float %14, %51
  call void @llvm.lifetime.start.p0(i64 8, ptr nonnull %9) #9
  %68 = fneg float %65
  %69 = call float @llvm.fmuladd.f32(float %68, float %.sroa.6.092, float %.sroa.0.091)
  %70 = fadd float %12, %69
  store float %70, ptr %9, align 4, !tbaa !3
  %71 = call float @llvm.fmuladd.f32(float %65, float %.sroa.0.091, float %.sroa.6.092)
  %72 = fadd float %14, %71
  store float %72, ptr %42, align 4, !tbaa !8
  call void @llvm.lifetime.start.p0(i64 8, ptr nonnull %10) #9
  %73 = call float @llvm.fmuladd.f32(float %65, float %51, float %49)
  %74 = fadd float %12, %73
  store float %74, ptr %10, align 4, !tbaa !3
  %75 = call float @llvm.fmuladd.f32(float %68, float %49, float %51)
  %76 = fadd float %14, %75
  store float %76, ptr %43, align 4, !tbaa !8
  call void @llvm.lifetime.start.p0(i64 8, ptr nonnull %11) #9
  store float %66, ptr %11, align 4, !tbaa !3
  store float %67, ptr %44, align 4, !tbaa !8
  call void @lv_vector_path_cubic_to(ptr noundef %0, ptr noundef nonnull %9, ptr noundef nonnull %10, ptr noundef nonnull %11)
  call void @llvm.lifetime.end.p0(i64 8, ptr nonnull %11) #9
  call void @llvm.lifetime.end.p0(i64 8, ptr nonnull %10) #9
  call void @llvm.lifetime.end.p0(i64 8, ptr nonnull %9) #9
  %77 = add nuw nsw i32 %.08790, 1
  %exitcond.not = icmp eq i32 %77, %23
  br i1 %exitcond.not, label %._crit_edge, label %45, !llvm.loop !27

78:                                               ; preds = %._crit_edge
  call void @lv_vector_path_close(ptr noundef %0)
  br label %79

79:                                               ; preds = %._crit_edge, %78, %16
  ret void
}